c__builtin__
set
p1
((lp2
Vhttp://baike.baidu.com/item/%E4%B9%94%E5%B7%B4/13680603#viewPageContent
p3
aVhttp://baike.baidu.com/item/%E6%B6%85%E7%9B%98
p4
aVhttp://baike.baidu.com/item/%E5%B7%B4%E7%B4%A2%E7%BD%97%E7%BC%AA%C2%B7%E5%A4%A7%E7%86%8A
p5
aVhttp://baike.baidu.com/item/%E7%BB%B4%E5%A4%9A%E5%88%A9%E4%BA%9A%C2%B7%E8%BE%9B%E6%9C%B5%E8%8E%89
p6
aVhttp://baike.baidu.com/item/%E4%BF%AE%E7%BD%97/14073094
p7
aVhttp://baike.baidu.com/item/%E5%B8%8C%E9%B2%81%E9%B2%81%E5%85%8B
p8
aVhttp://baike.baidu.com/item/%E7%8B%97%E4%BC%81%E9%B9%85
p9
aVhttp://baike.baidu.com/item/%E5%81%8E%E5%8F%96
p10
aVhttp://baike.baidu.com/item/%E5%85%AD%E5%BC%8F
p11
aVhttp://baike.baidu.com/item/%E5%BA%93%E8%95%BE%E5%93%88
p12
aVhttp://baike.baidu.com/item/%E6%9D%BE%E9%BC%A0%E5%9F%BA%E5%85%84%E5%BC%9F
p13
aVhttp://baike.baidu.com/item/%E6%A2%85%E4%B8%BD
p14
aVhttp://baike.baidu.com/item/%E5%A5%A5%E5%85%B9
p15
aVhttp://baike.baidu.com/item/%E6%B2%BB%E4%BA%94%E9%83%8E
p16
aVhttp://baike.baidu.com/item/%E5%87%AF%E6%92%92/15919002
p17
atRp18
.